; Function Attrs: mustprogress nofree norecurse nosync nounwind willreturn memory(argmem: read) uwtable
define noundef i32 @_ZNK10open_spiel11leduc_poker10LeducState18NumObservableCardsEv(ptr nocapture noundef nonnull readonly align 8 dereferenceable(330) %0) local_unnamed_addr #7 align 2 {
  %2 = getelementptr inbounds nuw i8, ptr %0, i64 329
  %3 = load i8, ptr %2, align 1
  %4 = getelementptr inbounds nuw i8, ptr %0, i64 168
  %5 = getelementptr inbounds i8, ptr %0, i64 176
  %6 = load ptr, ptr %5, align 8
  %7 = load ptr, ptr %4, align 8
  %8 = ptrtoint ptr %6 to i64
  %9 = ptrtoint ptr %7 to i64
  %10 = sub i64 %8, %9
  %11 = ashr exact i64 %10, 2
  %12 = and i8 %3, 1
  %13 = zext nneg i8 %12 to i64
  %14 = lshr i64 %11, %13
  %15 = trunc i64 %14 to i32
  ret i32 %15
}